(lp0
I34
aI99
aI200
aI301
aI394
aI454
aI544
aI665
aI817
aI901
aI982
aI1035
aI1114
aI1186
aI1255
aI1292
aI1352
aI1414
aI1478
aI1543
aI1594
aI1642
aI1687
aI1716
aI1759
aI1795
aI1842
aI1902
aI1975
aI2072
aI2176
aI2280
aI2385
aI2494
aI2586
aI2695
aI2820
aI2945
aI3085
aI3240
aI3410
aI3583
aI3800
aI4031
aI4276
aI4533
aI4802
aI5083
aI5382
aI5683
aI6042
aI6416
aI6804
aI7208
aI7627
aI8071
aI8527
aI8982
aI9436
aI9889
aI10351
aI10821
aI11268
aI11702
aI12152
aI12616
aI13108
aI13615
aI14062
aI14540
aI15049
aI15589
aI16160
aI16762
aI17451
aI18166
aI18881
aI19594
aI20309
aI21024
aI21717
aI22159
aI22918
aI23694
aI24487
aI25314
aI26175
aI27070
aI27573
aI28108
aI28635
aI29156
aI29442
aI29754
aI30094
aI30345
aI30621
aI30888
aI31152
aI31393
aI31654
aI31906
aI32153
aI32395
aI32632
aI32836
aI33057
aI33292
aI33475
aI33660
aI33847
aI34084
aI34281
aI34481
aI34693
aI34863
aI35027
aI35201
aI35353
aI35496
aI35648
aI35809
aI35979
aI36093
aI36195
aI36303
aI36417
aI36537
aI36664
aI36810
aI36964
aI37124
aI37292
aI37466
aI37653
aI37843
aI38032
aI38223
aI38417
aI38610
aI38802
aI38993
aI39193
aI39330
aI39480
aI39680
aI39898
aI40130
aI40328
aI40541
aI40794
aI41057
aI41330
aI41615
aI41911
aI42218
aI42426
aI42758
aI43106
aI43460
aI43835
aI44076
aI44335
aI44613
aI45025
aI45457
aI45747
aI45966
aI46199
aI46448
aI46713
aI46994
aI47193
aI47407
aI47635
aI47877
aI48105
aI48325
aI48496
aI48662
aI48823
aI48989
aI49164
aI49348
aI49564
aI49730
aI49884
aI50025
aI50176
aI50301
aI50393
aI50467
aI50545
aI50628
aI50720
aI50814
aI50909
aI51004
aI51085
aI51119
aI51136
aI51206
aI51290
aI51334
aI51401
aI51473
aI51541
aI51595
aI51654
aI51730
aI51829
aI51847
aI51882
aI51920
aI51960
aI51980
aI52011
aI52047
aI52072
aI52077
aI52085
a.