(lp0
I137
aI323
aI686
aI725
aI739
aI758
aI783
aI815
aI1001
aI1014
aI1023
aI1047
aI1072
aI1083
aI1092
aI1120
aI1168
aI1211
aI1254
aI1291
aI1307
aI1316
aI1325
aI1349
aI1374
aI1385
aI1410
aI1442
aI1538
aI1742
aI1990
aI2048
aI2078
aI2136
aI2168
aI2227
aI2285
aI2318
aI2418
aI2518
aI2618
aI2714
aI2904
aI2956
aI3014
aI3078
aI3142
aI3206
aI3270
aI3303
aI3581
aI3655
aI3719
aI3783
aI3853
aI4221
aI4637
aI4802
aI4962
aI5117
aI5150
aI5228
aI5244
aI5272
aI5304
aI5336
aI5472
aI5541
aI5585
aI5616
aI5652
aI5703
aI5759
aI5892
aI6193
aI6260
aI6290
aI6382
aI6434
aI6474
aI6530
aI6578
aI6607
aI6803
aI6999
aI7195
aI7221
aI7247
aI7258
aI7267
aI7284
aI7303
aI7329
aI7363
aI7395
aI7406
aI7415
aI7443
aI7469
aI7480
aI7489
aI7498
aI7507
aI7518
aI7537
aI7557
aI7584
aI7610
aI7636
aI7712
aI7732
aI7751
aI7777
aI7790
aI7809
aI7835
aI7846
aI7871
aI7903
aI7935
aI7967
aI7982
aI8001
aI8027
aI8053
aI8079
aI8111
aI8170
aI8242
aI8320
aI8392
aI8470
aI8602
aI8839
aI8934
aI8967
aI9041
aI9052
aI9061
aI9101
aI9144
aI9174
aI9200
aI9236
aI9488
aI9533
aI9621
aI9692
aI9799
aI9906
aI10019
aI10126
aI10156
aI10338
aI10408
aI10441
aI10571
aI10595
aI10621
aI10747
aI10867
aI10919
aI10933
aI10946
aI10971
aI10997
aI11023
aI11049
aI11083
aI11115
aI11141
aI11167
aI11178
aI11187
aI11200
aI11209
aI11218
aI11243
aI11275
aI11307
aI11401
aI11437
aI11449
aI11471
aI11497
aI11513
aI11524
aI11543
aI11569
aI11601
aI11654
aI11702
aI11744
aI11780
aI11796
aI11815
aI11824
aI11896
aI11930
aI11945
aI11964
aI11984
aI12017
aI12028
aI12053
aI12112
aI12174
aI12183
aI12192
aI12209
aI12228
aI12248
aI12281
aI12294
aI12313
aI12333
aI12359
aI12389
aI12420
a.