(lp0
(dp1
(I7
I3
tp2
I01
s(I6
I9
tp3
I01
s(I12
I1
tp4
I01
s(I11
I11
tp5
I01
s(I14
I4
tp6
I01
s(I13
I4
tp7
I01
s(I8
I5
tp8
I01
s(I5
I8
tp9
I01
s(I10
I8
tp10
I01
s(I6
I7
tp11
I01
s(I5
I5
tp12
I01
s(I11
I5
tp13
I01
s(I10
I7
tp14
I01
s(I7
I6
tp15
I01
s(I6
I10
tp16
I01
s(I12
I6
tp17
I01
s(I14
I1
tp18
I01
s(I13
I7
tp19
I01
s(I1
I1
tp20
I01
s(I3
I2
tp21
I01
s(I8
I2
tp22
I01
s(I9
I3
tp23
I01
s(I7
I5
tp24
I01
s(I12
I11
tp25
I01
s(I14
I2
tp26
I01
s(I13
I10
tp27
I01
s(I3
I1
tp28
I01
s(I9
I9
tp29
I01
s(I7
I8
tp30
I01
s(I14
I8
tp31
I01
s(I12
I8
tp32
I01
s(I2
I1
tp33
I01
s(I8
I9
tp34
I01
s(I9
I4
tp35
I01
s(I5
I1
tp36
I01
s(I10
I3
tp37
I01
s(I7
I2
tp38
I01
s(I12
I2
tp39
I01
s(I11
I10
tp40
I01
s(I14
I5
tp41
I01
s(I13
I3
tp42
I01
s(I2
I2
tp43
I01
s(I8
I6
tp44
I01
s(I4
I1
tp45
I01
s(I10
I9
tp46
I01
s(I9
I7
tp47
I01
s(I6
I4
tp48
I01
s(I5
I4
tp49
I01
s(I11
I4
tp50
I01
s(I10
I4
tp51
I01
s(I7
I1
tp52
I01
s(I6
I11
tp53
I01
s(I12
I7
tp54
I01
s(I11
I9
tp55
I01
s(I14
I6
tp56
I01
s(I13
I6
tp57
I01
s(I8
I3
tp58
I01
s(I5
I10
tp59
I01
s(I10
I10
tp60
I01
s(I9
I2
tp61
I01
s(I6
I1
tp62
I01
s(I5
I7
tp63
I01
s(I11
I3
tp64
I01
s(I7
I4
tp65
I01
s(I12
I4
tp66
I01
s(I14
I3
tp67
I01
s(I13
I9
tp68
I01
s(I9
I8
tp69
I01
s(I6
I2
tp70
I01
s(I7
I11
tp71
I01
s(I14
I9
tp72
I01
s(I12
I9
tp73
I01
s(I8
I10
tp74
I01
s(I9
I11
tp75
I01
s(I12
I3
tp76
I01
s(I13
I2
tp77
I01
s(I8
I7
tp78
I01
s(I4
I2
tp79
I01
s(I9
I6
tp80
I01
s(I6
I5
tp81
I01
s(I5
I3
tp82
I01
s(I11
I7
tp83
I01
s(I10
I5
tp84
I01
s(I6
I8
tp85
I01
s(I11
I8
tp86
I01
s(I14
I7
tp87
I01
s(I13
I5
tp88
I01
s(I8
I4
tp89
I01
s(I5
I9
tp90
I01
s(I10
I11
tp91
I01
s(I9
I1
tp92
I01
s(I6
I6
tp93
I01
s(I5
I6
tp94
I01
s(I11
I2
tp95
I01
s(I10
I6
tp96
I01
s(I7
I7
tp97
I01
s(I12
I5
tp98
I01
s(I13
I8
tp99
I01
s(I8
I1
tp100
I01
s(I6
I3
tp101
I01
s(I11
I1
tp102
I01
s(I7
I10
tp103
I01
s(I12
I10
tp104
I01
s(I8
I11
tp105
I01
s(I9
I10
tp106
I01
s(I10
I1
tp107
I01
s(I7
I9
tp108
I01
s(I13
I1
tp109
I01
s(I8
I8
tp110
I01
s(I9
I5
tp111
I01
s(I5
I2
tp112
I01
s(I11
I6
tp113
I01
s(I10
I2
tp114
I01
sag1
ag1
ag1
ag1
ag1
ag1
ag1
ag1
ag1
ag1
ag1
ag1
ag1
ag1
ag1
ag1
ag1
ag1
ag1
ag1
ag1
ag1
ag1
ag1
ag1
ag1
ag1
ag1
ag1
ag1
ag1
ag1
ag1
ag1
ag1
ag1
a.