(lp0
I314
aI574
aI821
aI1055
aI1276
aI1452
aI1663
aI1890
aI2065
aI2250
aI2445
aI2625
aI2796
aI2958
aI3111
aI3223
aI3362
aI3517
aI3616
aI3721
aI3832
aI3932
aI4027
aI4117
aI4202
aI4234
aI4283
aI4349
aI4431
aI4521
aI4567
aI4611
aI4662
aI4712
aI4751
aI4781
aI4809
a.