(lp0
I1577
aI1809
aI2111
aI2483
aI2925
aI3437
aI4019
aI4671
aI5393
aI6185
aI7047
aI7979
aI8981
aI10038
aI10895
aI11682
aI12399
aI13046
aI13623
aI14130
aI14567
aI14862
aI15326
aI15797
aI16324
aI16907
aI17555
aI18250
aI19006
aI19571
aI20090
aI20563
aI20990
aI21371
aI21706
aI21933
aI22284
aI22628
aI23003
aI23438
aI23875
aI24349
aI24670
aI24965
aI25234
aI25477
aI25612
aI25837
aI26039
aI26138
aI26282
aI26472
aI26579
aI26721
aI26895
aI26987
aI27118
aI27246
aI27400
aI27611
aI27812
aI27969
aI28199
aI28441
aI28655
aI28892
aI28939
aI29073
aI29101
aI29156
aI29215
aI29286
aI29418
aI29494
aI29579
aI29690
aI29827
aI29996
aI30013
a.