(lp0
I239
aI464
aI674
aI869
aI1049
aI1214
aI1364
aI1499
aI1619
aI1675
aI1723
aI1763
aI1795
aI1819
aI1835
aI1843
aI1859
aI1883
aI1997
aI2077
aI2165
aI2261
aI2365
aI2425
aI2480
aI2530
aI2575
aI2615
aI2650
aI2680
aI2705
aI2717
aI2726
aI2732
aI2735
aI2741
aI2750
aI2782
aI2802
aI2824
aI2848
aI2874
aI2902
aI2932
aI2964
aI2998
aI3035
a.