(lp0
I1167
aI1174
aI1183
aI1192
aI1201
aI1210
aI1219
aI1228
aI1237
aI1253
aI1262
aI1271
aI1280
aI1289
aI1298
aI1307
aI1382
aI1445
aI1865
aI1911
aI1948
aI1985
aI2022
aI2034
aI2043
aI2052
aI2061
aI2070
aI2079
aI2088
aI2097
aI2108
aI2117
aI2126
aI2135
aI2166
aI2198
aI2362
aI2394
aI2420
aI2446
aI2472
aI2498
aI2524
aI2550
aI2581
aI2618
a.